; Function Attrs: nounwind uwtable
define dso_local i32 @uv_poll_init(ptr noundef %0, ptr noundef %1, i32 noundef %2) local_unnamed_addr #0 {
  %4 = tail call i32 @uv__fd_exists(ptr noundef %0, i32 noundef %2) #2
  %.not = icmp eq i32 %4, 0
  br i1 %.not, label %5, label %25

5:                                                ; preds = %3
  %6 = tail call i32 @uv__io_check_fd(ptr noundef %0, i32 noundef %2) #2
  %.not24 = icmp eq i32 %6, 0
  br i1 %.not24, label %7, label %25

7:                                                ; preds = %5
  %8 = tail call i32 @uv__nonblock_ioctl(i32 noundef %2, i32 noundef 1) #2
  %9 = icmp eq i32 %8, -25
  br i1 %9, label %10, label %12

10:                                               ; preds = %7
  %11 = tail call i32 @uv__nonblock_fcntl(i32 noundef %2, i32 noundef 1) #2
  br label %12

12:                                               ; preds = %10, %7
  %.0 = phi i32 [ %11, %10 ], [ %8, %7 ]
  %.not25 = icmp eq i32 %.0, 0
  br i1 %.not25, label %13, label %25

13:                                               ; preds = %12
  %14 = getelementptr inbounds nuw i8, ptr %1, i64 8
  store ptr %0, ptr %14, align 8
  %15 = getelementptr inbounds nuw i8, ptr %1, i64 16
  store i32 8, ptr %15, align 8
  %16 = getelementptr inbounds nuw i8, ptr %1, i64 88
  store i32 8, ptr %16, align 8
  %17 = getelementptr inbounds nuw i8, ptr %0, i64 16
  %18 = getelementptr inbounds nuw i8, ptr %1, i64 32
  store ptr %17, ptr %18, align 8
  %19 = getelementptr inbounds nuw i8, ptr %0, i64 24
  %20 = load ptr, ptr %19, align 8
  %21 = getelementptr inbounds nuw i8, ptr %1, i64 40
  store ptr %20, ptr %21, align 8
  store ptr %18, ptr %20, align 8
  store ptr %18, ptr %19, align 8
  %22 = getelementptr inbounds nuw i8, ptr %1, i64 80
  store ptr null, ptr %22, align 8
  %23 = getelementptr inbounds nuw i8, ptr %1, i64 104
  tail call void @uv__io_init(ptr noundef nonnull %23, ptr noundef nonnull @uv__poll_io, i32 noundef %2) #2
  %24 = getelementptr inbounds nuw i8, ptr %1, i64 96
  store ptr null, ptr %24, align 8
  br label %25

25:                                               ; preds = %12, %5, %3, %13
  %.021 = phi i32 [ 0, %13 ], [ -17, %3 ], [ %6, %5 ], [ %.0, %12 ]
  ret i32 %.021
}